target datalayout = "e-m:e-p270:32:32-p271:32:32-p272:64:64-i64:64-i128:128-f80:128-n8:16:32:64-S128"
target triple = "x86_64-pc-linux-gnu"

%union.anon = type { ptr }

; Function Attrs: mustprogress nounwind uwtable
define noundef i32 @_Z18ufmt_digitvalue_77Ds(i16 noundef zeroext %0) #0 {
  %2 = alloca i32, align 4
  %3 = alloca i16, align 2
  store i16 %0, ptr %3, align 2, !tbaa !3
  %4 = load i16, ptr %3, align 2, !tbaa !3
  %5 = zext i16 %4 to i32
  %6 = icmp sge i32 %5, 48
  br i1 %6, label %7, label %11

7:                                                ; preds = %1
  %8 = load i16, ptr %3, align 2, !tbaa !3
  %9 = zext i16 %8 to i32
  %10 = icmp sle i32 %9, 57
  br i1 %10, label %27, label %11

11:                                               ; preds = %7, %1
  %12 = load i16, ptr %3, align 2, !tbaa !3
  %13 = zext i16 %12 to i32
  %14 = icmp sge i32 %13, 97
  br i1 %14, label %15, label %19

15:                                               ; preds = %11
  %16 = load i16, ptr %3, align 2, !tbaa !3
  %17 = zext i16 %16 to i32
  %18 = icmp sle i32 %17, 122
  br i1 %18, label %27, label %19

19:                                               ; preds = %15, %11
  %20 = load i16, ptr %3, align 2, !tbaa !3
  %21 = zext i16 %20 to i32
  %22 = icmp sge i32 %21, 65
  br i1 %22, label %23, label %43

23:                                               ; preds = %19
  %24 = load i16, ptr %3, align 2, !tbaa !3
  %25 = zext i16 %24 to i32
  %26 = icmp sle i32 %25, 90
  br i1 %26, label %27, label %43

27:                                               ; preds = %23, %15, %7
  %28 = load i16, ptr %3, align 2, !tbaa !3
  %29 = zext i16 %28 to i32
  %30 = sub nsw i32 %29, 48
  %31 = load i16, ptr %3, align 2, !tbaa !3
  %32 = zext i16 %31 to i32
  %33 = icmp sge i32 %32, 65
  br i1 %33, label %34, label %39

34:                                               ; preds = %27
  %35 = load i16, ptr %3, align 2, !tbaa !3
  %36 = zext i16 %35 to i32
  %37 = icmp sge i32 %36, 97
  %38 = select i1 %37, i32 39, i32 7
  br label %40

39:                                               ; preds = %27
  br label %40

40:                                               ; preds = %39, %34
  %41 = phi i32 [ %38, %34 ], [ 0, %39 ]
  %42 = sub nsw i32 %30, %41
  store i32 %42, ptr %2, align 4
  br label %44

43:                                               ; preds = %23, %19
  store i32 -1, ptr %2, align 4
  br label %44

44:                                               ; preds = %43, %40
  %45 = load i32, ptr %2, align 4
  ret i32 %45
}

; Function Attrs: mustprogress nounwind uwtable
define noundef signext i8 @_Z15ufmt_isdigit_77Dsi(i16 noundef zeroext %0, i32 noundef %1) #0 {
  %3 = alloca i16, align 2
  %4 = alloca i32, align 4
  %5 = alloca i32, align 4
  store i16 %0, ptr %3, align 2, !tbaa !3
  store i32 %1, ptr %4, align 4, !tbaa !7
  call void @llvm.lifetime.start.p0(i64 4, ptr %5) #6
  %6 = load i16, ptr %3, align 2, !tbaa !3
  %7 = call noundef i32 @_Z18ufmt_digitvalue_77Ds(i16 noundef zeroext %6)
  store i32 %7, ptr %5, align 4, !tbaa !7
  %8 = load i32, ptr %5, align 4, !tbaa !7
  %9 = load i32, ptr %4, align 4, !tbaa !7
  %10 = icmp slt i32 %8, %9
  br i1 %10, label %11, label %14

11:                                               ; preds = %2
  %12 = load i32, ptr %5, align 4, !tbaa !7
  %13 = icmp sge i32 %12, 0
  br label %14

14:                                               ; preds = %11, %2
  %15 = phi i1 [ false, %2 ], [ %13, %11 ]
  %16 = zext i1 %15 to i8
  call void @llvm.lifetime.end.p0(i64 4, ptr %5) #6
  ret i8 %16
}

; Function Attrs: mustprogress uwtable
define noundef ptr @_Z12ufmt_utop_77PKDsPi(ptr noundef %0, ptr noundef %1) #2 {
  %3 = alloca ptr, align 8
  %4 = alloca ptr, align 8
  %5 = alloca i32, align 4
  %6 = alloca i32, align 4
  %7 = alloca i32, align 4
  %8 = alloca i32, align 4
  %9 = alloca %union.anon, align 8
  %10 = alloca i8, align 1
  store ptr %0, ptr %3, align 8, !tbaa !9
  store ptr %1, ptr %4, align 8, !tbaa !12
  call void @llvm.lifetime.start.p0(i64 4, ptr %5) #6
  call void @llvm.lifetime.start.p0(i64 4, ptr %6) #6
  call void @llvm.lifetime.start.p0(i64 4, ptr %7) #6
  call void @llvm.lifetime.start.p0(i64 4, ptr %8) #6
  call void @llvm.lifetime.start.p0(i64 8, ptr %9) #6
  store i32 0, ptr %5, align 4, !tbaa !7
  store i32 0, ptr %8, align 4, !tbaa !7
  store ptr null, ptr %9, align 8, !tbaa !16
  br label %11

11:                                               ; preds = %30, %2
  %12 = load ptr, ptr %3, align 8, !tbaa !9
  %13 = load i32, ptr %5, align 4, !tbaa !7
  %14 = sext i32 %13 to i64
  %15 = getelementptr inbounds i16, ptr %12, i64 %14
  %16 = load i16, ptr %15, align 2, !tbaa !3
  %17 = zext i16 %16 to i32
  %18 = icmp eq i32 %17, 48
  br i1 %18, label %28, label %19

19:                                               ; preds = %11
  %20 = load ptr, ptr %3, align 8, !tbaa !9
  %21 = load i32, ptr %5, align 4, !tbaa !7
  %22 = sext i32 %21 to i64
  %23 = getelementptr inbounds i16, ptr %20, i64 %22
  %24 = load i16, ptr %23, align 2, !tbaa !3
  %25 = zext i16 %24 to i32
  %26 = call signext i8 @u_isspace_77(i32 noundef %25)
  %27 = icmp ne i8 %26, 0
  br label %28

28:                                               ; preds = %19, %11
  %29 = phi i1 [ true, %11 ], [ %27, %19 ]
  br i1 %29, label %30, label %35

30:                                               ; preds = %28
  %31 = load i32, ptr %5, align 4, !tbaa !7
  %32 = add nsw i32 %31, 1
  store i32 %32, ptr %5, align 4, !tbaa !7
  %33 = load i32, ptr %8, align 4, !tbaa !7
  %34 = add nsw i32 %33, 1
  store i32 %34, ptr %8, align 4, !tbaa !7
  br label %11, !llvm.loop !28

35:                                               ; preds = %28
  br label %36

36:                                               ; preds = %51, %35
  %37 = load i32, ptr %5, align 4, !tbaa !7
  %38 = load ptr, ptr %4, align 8, !tbaa !12
  %39 = load i32, ptr %38, align 4, !tbaa !7
  %40 = icmp slt i32 %37, %39
  br i1 %40, label %41, label %49

41:                                               ; preds = %36
  %42 = load ptr, ptr %3, align 8, !tbaa !9
  %43 = load i32, ptr %5, align 4, !tbaa !7
  %44 = sext i32 %43 to i64
  %45 = getelementptr inbounds i16, ptr %42, i64 %44
  %46 = load i16, ptr %45, align 2, !tbaa !3
  %47 = call noundef signext i8 @_Z15ufmt_isdigit_77Dsi(i16 noundef zeroext %46, i32 noundef 16)
  %48 = icmp ne i8 %47, 0
  br label %49

49:                                               ; preds = %41, %36
  %50 = phi i1 [ false, %36 ], [ %48, %41 ]
  br i1 %50, label %51, label %54

51:                                               ; preds = %49
  %52 = load i32, ptr %5, align 4, !tbaa !7
  %53 = add nsw i32 %52, 1
  store i32 %53, ptr %5, align 4, !tbaa !7
  br label %36, !llvm.loop !29

54:                                               ; preds = %49
  %55 = load i32, ptr %5, align 4, !tbaa !7
  %56 = load i32, ptr %8, align 4, !tbaa !7
  %57 = sub nsw i32 %55, %56
  %58 = icmp sgt i32 %57, 16
  br i1 %58, label %59, label %62

59:                                               ; preds = %54
  %60 = load i32, ptr %5, align 4, !tbaa !7
  %61 = sub nsw i32 %60, 16
  store i32 %61, ptr %8, align 4, !tbaa !7
  br label %62

62:                                               ; preds = %59, %54
  store i32 1, ptr %7, align 4, !tbaa !7
  store i32 0, ptr %6, align 4, !tbaa !7
  %63 = load i32, ptr %5, align 4, !tbaa !7
  %64 = load ptr, ptr %4, align 8, !tbaa !12
  store i32 %63, ptr %64, align 4, !tbaa !7
  br label %65

65:                                               ; preds = %94, %62
  %66 = load i32, ptr %5, align 4, !tbaa !7
  %67 = add nsw i32 %66, -1
  store i32 %67, ptr %5, align 4, !tbaa !7
  %68 = load i32, ptr %8, align 4, !tbaa !7
  %69 = icmp sge i32 %67, %68
  br i1 %69, label %70, label %102

70:                                               ; preds = %65
  call void @llvm.lifetime.start.p0(i64 1, ptr %10) #6
  %71 = load ptr, ptr %3, align 8, !tbaa !9
  %72 = load i32, ptr %5, align 4, !tbaa !7
  %73 = sext i32 %72 to i64
  %74 = getelementptr inbounds i16, ptr %71, i64 %73
  %75 = load i16, ptr %74, align 2, !tbaa !3
  %76 = call noundef i32 @_Z18ufmt_digitvalue_77Ds(i16 noundef zeroext %75)
  %77 = trunc i32 %76 to i8
  store i8 %77, ptr %10, align 1, !tbaa !16
  %78 = load i32, ptr %5, align 4, !tbaa !7
  %79 = load i32, ptr %8, align 4, !tbaa !7
  %80 = icmp sgt i32 %78, %79
  br i1 %80, label %81, label %94

81:                                               ; preds = %70
  %82 = load i8, ptr %10, align 1, !tbaa !16
  %83 = zext i8 %82 to i32
  %84 = load ptr, ptr %3, align 8, !tbaa !9
  %85 = load i32, ptr %5, align 4, !tbaa !7
  %86 = add nsw i32 %85, -1
  store i32 %86, ptr %5, align 4, !tbaa !7
  %87 = sext i32 %86 to i64
  %88 = getelementptr inbounds i16, ptr %84, i64 %87
  %89 = load i16, ptr %88, align 2, !tbaa !3
  %90 = call noundef i32 @_Z18ufmt_digitvalue_77Ds(i16 noundef zeroext %89)
  %91 = shl i32 %90, 4
  %92 = add nsw i32 %83, %91
  %93 = trunc i32 %92 to i8
  store i8 %93, ptr %10, align 1, !tbaa !16
  br label %94

94:                                               ; preds = %81, %70
  %95 = load i8, ptr %10, align 1, !tbaa !16
  %96 = load i32, ptr %6, align 4, !tbaa !7
  %97 = sext i32 %96 to i64
  %98 = getelementptr inbounds [8 x i8], ptr %9, i64 0, i64 %97
  store i8 %95, ptr %98, align 1, !tbaa !16
  %99 = load i32, ptr %7, align 4, !tbaa !7
  %100 = load i32, ptr %6, align 4, !tbaa !7
  %101 = add nsw i32 %100, %99
  store i32 %101, ptr %6, align 4, !tbaa !7
  call void @llvm.lifetime.end.p0(i64 1, ptr %10) #6
  br label %65, !llvm.loop !30

102:                                              ; preds = %65
  %103 = load ptr, ptr %9, align 8, !tbaa !16
  call void @llvm.lifetime.end.p0(i64 8, ptr %9) #6
  call void @llvm.lifetime.end.p0(i64 4, ptr %8) #6
  call void @llvm.lifetime.end.p0(i64 4, ptr %7) #6
  call void @llvm.lifetime.end.p0(i64 4, ptr %6) #6
  call void @llvm.lifetime.end.p0(i64 4, ptr %5) #6
  ret ptr %103
}