; Function Attrs: mustprogress uwtable
define noundef ptr @_Z12ufmt_utop_77PKDsPi(ptr noundef readonly captures(none) %0, ptr noundef captures(none) %1) local_unnamed_addr #4 {
  %3 = alloca %union.anon, align 8
  call void @llvm.lifetime.start.p0(i64 8, ptr nonnull %3) #7
  store ptr null, ptr %3, align 8, !tbaa !15
  br label %4

4:                                                ; preds = %.critedge, %2
  %indvars.iv = phi i64 [ %indvars.iv.next, %.critedge ], [ 0, %2 ]
  %5 = getelementptr inbounds nuw i16, ptr %0, i64 %indvars.iv
  %6 = load i16, ptr %5, align 2, !tbaa !3
  %7 = icmp eq i16 %6, 48
  br i1 %7, label %.critedge, label %8

8:                                                ; preds = %4
  %9 = zext i16 %6 to i32
  %10 = tail call signext i8 @u_isspace_77(i32 noundef %9)
  %.not = icmp eq i8 %10, 0
  br i1 %.not, label %.preheader, label %.critedge

.preheader:                                       ; preds = %8
  %indvars56.le = trunc i64 %indvars.iv to i32
  %11 = load i32, ptr %1, align 4, !tbaa !9
  %12 = icmp sgt i32 %11, %indvars56.le
  br i1 %12, label %.lr.ph.preheader, label %.critedge2

.lr.ph.preheader:                                 ; preds = %.preheader
  %wide.trip.count = zext i32 %11 to i64
  br label %.lr.ph

.critedge:                                        ; preds = %4, %8
  %indvars.iv.next = add nuw nsw i64 %indvars.iv, 1
  br label %4, !llvm.loop !18

.lr.ph:                                           ; preds = %.lr.ph.preheader, %25
  %indvars.iv57 = phi i64 [ %indvars.iv, %.lr.ph.preheader ], [ %indvars.iv.next58, %25 ]
  %13 = getelementptr inbounds nuw i16, ptr %0, i64 %indvars.iv57
  %14 = load i16, ptr %13, align 2, !tbaa !3
  %15 = add i16 %14, -48
  %or.cond.i.i = icmp ult i16 %15, 10
  %16 = and i16 %14, -33
  %17 = add i16 %16, -65
  %18 = icmp ult i16 %17, 26
  %or.cond20.i.i = or i1 %or.cond.i.i, %18
  br i1 %or.cond20.i.i, label %_Z15ufmt_isdigit_77Dsi.exit, label %.critedge2.loopexit.split.loop.exit

_Z15ufmt_isdigit_77Dsi.exit:                      ; preds = %.lr.ph
  %19 = zext i16 %14 to i32
  %20 = add nsw i32 %19, -48
  %21 = icmp samesign ugt i16 %14, 64
  %22 = icmp samesign ugt i16 %14, 96
  %.neg.i.i = select i1 %22, i32 -39, i32 -7
  %.neg18.i.i = select i1 %21, i32 %.neg.i.i, i32 0
  %23 = add nsw i32 %20, %.neg18.i.i
  %24 = icmp ugt i32 %23, 15
  br i1 %24, label %.critedge2.loopexit.split.loop.exit66, label %25

25:                                               ; preds = %_Z15ufmt_isdigit_77Dsi.exit
  %indvars.iv.next58 = add nuw i64 %indvars.iv57, 1
  %exitcond.not = icmp eq i64 %indvars.iv.next58, %wide.trip.count
  br i1 %exitcond.not, label %.critedge2, label %.lr.ph, !llvm.loop !19

.critedge2.loopexit.split.loop.exit:              ; preds = %.lr.ph
  %26 = trunc nuw nsw i64 %indvars.iv57 to i32
  br label %.critedge2

.critedge2.loopexit.split.loop.exit66:            ; preds = %_Z15ufmt_isdigit_77Dsi.exit
  %27 = trunc nuw nsw i64 %indvars.iv57 to i32
  br label %.critedge2

.critedge2:                                       ; preds = %25, %.critedge2.loopexit.split.loop.exit, %.critedge2.loopexit.split.loop.exit66, %.preheader
  %.132.lcssa = phi i32 [ %indvars56.le, %.preheader ], [ %26, %.critedge2.loopexit.split.loop.exit ], [ %27, %.critedge2.loopexit.split.loop.exit66 ], [ %11, %25 ]
  %28 = sub nsw i32 %.132.lcssa, %indvars56.le
  %29 = icmp sgt i32 %28, 16
  %30 = add nsw i32 %.132.lcssa, -16
  %spec.select = select i1 %29, i32 %30, i32 %indvars56.le
  store i32 %.132.lcssa, ptr %1, align 4, !tbaa !9
  %.not37.not50 = icmp sgt i32 %.132.lcssa, %spec.select
  br i1 %.not37.not50, label %.lr.ph53, label %._crit_edge

.lr.ph53:                                         ; preds = %.critedge2, %59
  %indvars.iv60 = phi i64 [ %indvars.iv.next61, %59 ], [ 0, %.critedge2 ]
  %.252 = phi i32 [ %.3, %59 ], [ %.132.lcssa, %.critedge2 ]
  %31 = add nsw i32 %.252, -1
  %32 = sext i32 %31 to i64
  %33 = getelementptr inbounds i16, ptr %0, i64 %32
  %34 = load i16, ptr %33, align 2, !tbaa !3
  %35 = add i16 %34, -48
  %or.cond.i = icmp ult i16 %35, 10
  %36 = and i16 %34, -33
  %37 = add i16 %36, -65
  %38 = icmp ult i16 %37, 26
  %or.cond20.i = or i1 %or.cond.i, %38
  br i1 %or.cond20.i, label %39, label %_Z18ufmt_digitvalue_77Ds.exit

39:                                               ; preds = %.lr.ph53
  %40 = trunc i16 %34 to i8
  %41 = add i8 %40, -48
  %42 = icmp samesign ugt i16 %34, 64
  %43 = icmp samesign ugt i16 %34, 96
  %.neg.i = select i1 %43, i8 -39, i8 -7
  %.neg18.i = select i1 %42, i8 %.neg.i, i8 0
  %44 = add i8 %41, %.neg18.i
  br label %_Z18ufmt_digitvalue_77Ds.exit

_Z18ufmt_digitvalue_77Ds.exit:                    ; preds = %.lr.ph53, %39
  %.0.i = phi i8 [ %44, %39 ], [ -1, %.lr.ph53 ]
  %45 = icmp sgt i32 %31, %spec.select
  br i1 %45, label %_Z18ufmt_digitvalue_77Ds.exit43, label %59

_Z18ufmt_digitvalue_77Ds.exit43:                  ; preds = %_Z18ufmt_digitvalue_77Ds.exit
  %46 = add nsw i32 %.252, -2
  %47 = sext i32 %46 to i64
  %48 = getelementptr inbounds i16, ptr %0, i64 %47
  %49 = load i16, ptr %48, align 2, !tbaa !3
  %50 = add i16 %49, -48
  %or.cond.i38 = icmp ult i16 %50, 10
  %51 = and i16 %49, -33
  %52 = add i16 %51, -65
  %53 = icmp ult i16 %52, 26
  %or.cond20.i39 = or i1 %or.cond.i38, %53
  %54 = trunc i16 %49 to i8
  %55 = icmp samesign ugt i16 %49, 64
  %.neg18.i42 = select i1 %55, i8 9, i8 0
  %56 = add i8 %.neg18.i42, %54
  %57 = shl i8 %56, 4
  %.0.i40 = select i1 %or.cond20.i39, i8 %57, i8 -16
  %58 = add i8 %.0.i40, %.0.i
  br label %59

59:                                               ; preds = %_Z18ufmt_digitvalue_77Ds.exit43, %_Z18ufmt_digitvalue_77Ds.exit
  %.3 = phi i32 [ %46, %_Z18ufmt_digitvalue_77Ds.exit43 ], [ %31, %_Z18ufmt_digitvalue_77Ds.exit ]
  %.0.in = phi i8 [ %58, %_Z18ufmt_digitvalue_77Ds.exit43 ], [ %.0.i, %_Z18ufmt_digitvalue_77Ds.exit ]
  %60 = getelementptr inbounds nuw [8 x i8], ptr %3, i64 0, i64 %indvars.iv60
  store i8 %.0.in, ptr %60, align 1, !tbaa !15
  %indvars.iv.next61 = add nuw nsw i64 %indvars.iv60, 1
  %.not37.not = icmp sgt i32 %.3, %spec.select
  br i1 %.not37.not, label %.lr.ph53, label %._crit_edge.loopexit, !llvm.loop !20

._crit_edge.loopexit:                             ; preds = %59
  %.pre = load ptr, ptr %3, align 8, !tbaa !15
  br label %._crit_edge

._crit_edge:                                      ; preds = %._crit_edge.loopexit, %.critedge2
  %61 = phi ptr [ %.pre, %._crit_edge.loopexit ], [ null, %.critedge2 ]
  call void @llvm.lifetime.end.p0(i64 8, ptr nonnull %3) #7
  ret ptr %61
}